; ModuleID = '38/1586.c'
source_filename = "38/1586.c"
target datalayout = "e-m:e-p270:32:32-p271:32:32-p272:64:64-i64:64-f80:128-n8:16:32:64-S128"
target triple = "x86_64-pc-linux-gnu"

@.str = private unnamed_addr constant [3 x i8] c"%d\00", align 1
@.str.1 = private unnamed_addr constant [4 x i8] c"%lf\00", align 1
@.str.2 = private unnamed_addr constant [7 x i8] c"%.5lf\0A\00", align 1

; Function Attrs: noinline nounwind uwtable
define dso_local i32 @main() #0 {
  %1 = alloca i32, align 4
  %2 = alloca i32, align 4
  %3 = alloca i32, align 4
  %4 = alloca i32, align 4
  %5 = alloca i32, align 4
  %6 = alloca [100 x double], align 16
  %7 = alloca [100 x double], align 16
  %8 = alloca double, align 8
  %9 = alloca double, align 8
  store i32 0, i32* %1, align 4
  %10 = call i32 (i8*, ...) @__isoc99_scanf(i8* getelementptr inbounds ([3 x i8], [3 x i8]* @.str, i64 0, i64 0), i32* %4)
  store i32 0, i32* %3, align 4
  br label %11

11:                                               ; preds = %74, %0
  %12 = load i32, i32* %3, align 4
  %13 = load i32, i32* %4, align 4
  %14 = icmp slt i32 %12, %13
  br i1 %14, label %15, label %77

15:                                               ; preds = %11
  %16 = call i32 (i8*, ...) @__isoc99_scanf(i8* getelementptr inbounds ([3 x i8], [3 x i8]* @.str, i64 0, i64 0), i32* %2)
  store double 0.000000e+00, double* %8, align 8
  store i32 0, i32* %5, align 4
  br label %17

17:                                               ; preds = %32, %15
  %18 = load i32, i32* %5, align 4
  %19 = load i32, i32* %2, align 4
  %20 = icmp slt i32 %18, %19
  br i1 %20, label %21, label %35

21:                                               ; preds = %17
  %22 = load i32, i32* %5, align 4
  %23 = sext i32 %22 to i64
  %24 = getelementptr inbounds [100 x double], [100 x double]* %6, i64 0, i64 %23
  %25 = call i32 (i8*, ...) @__isoc99_scanf(i8* getelementptr inbounds ([4 x i8], [4 x i8]* @.str.1, i64 0, i64 0), double* %24)
  %26 = load i32, i32* %5, align 4
  %27 = sext i32 %26 to i64
  %28 = getelementptr inbounds [100 x double], [100 x double]* %6, i64 0, i64 %27
  %29 = load double, double* %28, align 8
  %30 = load double, double* %8, align 8
  %31 = fadd double %30, %29
  store double %31, double* %8, align 8
  br label %32

32:                                               ; preds = %21
  %33 = load i32, i32* %5, align 4
  %34 = add nsw i32 %33, 1
  store i32 %34, i32* %5, align 4
  br label %17

35:                                               ; preds = %17
  store double 0.000000e+00, double* %9, align 8
  store i32 0, i32* %5, align 4
  br label %36

36:                                               ; preds = %62, %35
  %37 = load i32, i32* %5, align 4
  %38 = load i32, i32* %2, align 4
  %39 = icmp slt i32 %37, %38
  br i1 %39, label %40, label %65

40:                                               ; preds = %36
  %41 = load i32, i32* %5, align 4
  %42 = sext i32 %41 to i64
  %43 = getelementptr inbounds [100 x double], [100 x double]* %6, i64 0, i64 %42
  %44 = load double, double* %43, align 8
  %45 = load double, double* %8, align 8
  %46 = load i32, i32* %2, align 4
  %47 = sitofp i32 %46 to double
  %48 = fdiv double %45, %47
  %49 = fsub double %44, %48
  %50 = load i32, i32* %5, align 4
  %51 = sext i32 %50 to i64
  %52 = getelementptr inbounds [100 x double], [100 x double]* %6, i64 0, i64 %51
  %53 = load double, double* %52, align 8
  %54 = load double, double* %8, align 8
  %55 = load i32, i32* %2, align 4
  %56 = sitofp i32 %55 to double
  %57 = fdiv double %54, %56
  %58 = fsub double %53, %57
  %59 = fmul double %49, %58
  %60 = load double, double* %9, align 8
  %61 = fadd double %60, %59
  store double %61, double* %9, align 8
  br label %62

62:                                               ; preds = %40
  %63 = load i32, i32* %5, align 4
  %64 = add nsw i32 %63, 1
  store i32 %64, i32* %5, align 4
  br label %36

65:                                               ; preds = %36
  %66 = load double, double* %9, align 8
  %67 = load i32, i32* %2, align 4
  %68 = sitofp i32 %67 to double
  %69 = fdiv double %66, %68
  %70 = call double @sqrt(double %69) #3
  %71 = load i32, i32* %3, align 4
  %72 = sext i32 %71 to i64
  %73 = getelementptr inbounds [100 x double], [100 x double]* %7, i64 0, i64 %72
  store double %70, double* %73, align 8
  br label %74

74:                                               ; preds = %65
  %75 = load i32, i32* %3, align 4
  %76 = add nsw i32 %75, 1
  store i32 %76, i32* %3, align 4
  br label %11

77:                                               ; preds = %11
  store i32 0, i32* %3, align 4
  br label %78

78:                                               ; preds = %88, %77
  %79 = load i32, i32* %3, align 4
  %80 = load i32, i32* %4, align 4
  %81 = icmp slt i32 %79, %80
  br i1 %81, label %82, label %91

82:                                               ; preds = %78
  %83 = load i32, i32* %3, align 4
  %84 = sext i32 %83 to i64
  %85 = getelementptr inbounds [100 x double], [100 x double]* %7, i64 0, i64 %84
  %86 = load double, double* %85, align 8
  %87 = call i32 (i8*, ...) @printf(i8* getelementptr inbounds ([7 x i8], [7 x i8]* @.str.2, i64 0, i64 0), double %86)
  br label %88

88:                                               ; preds = %82
  %89 = load i32, i32* %3, align 4
  %90 = add nsw i32 %89, 1
  store i32 %90, i32* %3, align 4
  br label %78

91:                                               ; preds = %78
  ret i32 0
}

declare dso_local i32 @__isoc99_scanf(i8*, ...) #1

; Function Attrs: nounwind
declare dso_local double @sqrt(double) #2

declare dso_local i32 @printf(i8*, ...) #1


!llvm.module.flags = !{!0}
!llvm.ident = !{!1}

!0 = !{i32 1, !"wchar_size", i32 4}
!1 = !{!"clang version 10.0.0-4ubuntu1 "}
